; Function Attrs: nounwind uwtable
define dso_local noundef zeroext i1 @listDbRoleSettings(ptr noundef %0, ptr noundef %1) local_unnamed_addr #0 {
  %3 = alloca %struct.PQExpBufferData, align 8
  %4 = alloca i32, align 4
  %5 = alloca %struct.PQExpBufferData, align 8
  %6 = alloca i32, align 4
  %7 = alloca %struct.PQExpBufferData, align 8
  %8 = alloca %struct.printQueryOpt, align 8
  call void @llvm.lifetime.start.p0(i64 24, ptr nonnull %7) #8
  call void @llvm.lifetime.start.p0(i64 168, ptr nonnull %8) #8
  call void @llvm.memcpy.p0.p0.i64(ptr noundef nonnull align 8 dereferenceable(168) %8, ptr noundef nonnull align 8 dereferenceable(168) getelementptr inbounds nuw (i8, ptr @pset, i64 48), i64 168, i1 false)
  call void @initPQExpBuffer(ptr noundef nonnull %7) #8
  call void (ptr, ptr, ...) @printfPQExpBuffer(ptr noundef nonnull %7, ptr noundef nonnull @.str.226, ptr noundef nonnull @.str.227, ptr noundef nonnull @.str.228, ptr noundef nonnull @.str.229) #8
  call void @llvm.lifetime.start.p0(i64 24, ptr nonnull %5) #8
  call void @llvm.lifetime.start.p0(i64 4, ptr nonnull %6) #8
  call void @initPQExpBuffer(ptr noundef nonnull %5) #8
  %9 = load ptr, ptr @pset, align 8
  %10 = call zeroext i1 @processSQLNamePattern(ptr noundef %9, ptr noundef nonnull %7, ptr noundef %0, i1 noundef zeroext false, i1 noundef zeroext false, ptr noundef null, ptr noundef nonnull @.str.209, ptr noundef null, ptr noundef null, ptr noundef nonnull %5, ptr noundef nonnull %6) #8
  %11 = load i32, ptr %6, align 4
  %.not19.i = icmp slt i32 %11, 1
  br i1 %.not19.i, label %12, label %validateSQLNamePattern.exit

validateSQLNamePattern.exit:                      ; preds = %2
  call void (i32, i32, ptr, ...) @pg_log_generic(i32 noundef 4, i32 noundef 0, ptr noundef nonnull @.str.912, ptr noundef %0) #8
  call void @termPQExpBuffer(ptr noundef nonnull %5) #8
  call void @llvm.lifetime.end.p0(i64 4, ptr nonnull %6) #8
  call void @llvm.lifetime.end.p0(i64 24, ptr nonnull %5) #8
  br label %38

12:                                               ; preds = %2
  call void @termPQExpBuffer(ptr noundef nonnull %5) #8
  call void @llvm.lifetime.end.p0(i64 4, ptr nonnull %6) #8
  call void @llvm.lifetime.end.p0(i64 24, ptr nonnull %5) #8
  call void @llvm.lifetime.start.p0(i64 24, ptr nonnull %3) #8
  call void @llvm.lifetime.start.p0(i64 4, ptr nonnull %4) #8
  call void @initPQExpBuffer(ptr noundef nonnull %3) #8
  %13 = load ptr, ptr @pset, align 8
  %14 = call zeroext i1 @processSQLNamePattern(ptr noundef %13, ptr noundef nonnull %7, ptr noundef %1, i1 noundef zeroext %10, i1 noundef zeroext false, ptr noundef null, ptr noundef nonnull @.str.149, ptr noundef null, ptr noundef null, ptr noundef nonnull %3, ptr noundef nonnull %4) #8
  %15 = load i32, ptr %4, align 4
  %.not19.i17 = icmp slt i32 %15, 1
  br i1 %.not19.i17, label %16, label %validateSQLNamePattern.exit19

validateSQLNamePattern.exit19:                    ; preds = %12
  call void (i32, i32, ptr, ...) @pg_log_generic(i32 noundef 4, i32 noundef 0, ptr noundef nonnull @.str.912, ptr noundef %1) #8
  call void @termPQExpBuffer(ptr noundef nonnull %3) #8
  call void @llvm.lifetime.end.p0(i64 4, ptr nonnull %4) #8
  call void @llvm.lifetime.end.p0(i64 24, ptr nonnull %3) #8
  br label %38

16:                                               ; preds = %12
  call void @termPQExpBuffer(ptr noundef nonnull %3) #8
  call void @llvm.lifetime.end.p0(i64 4, ptr nonnull %4) #8
  call void @llvm.lifetime.end.p0(i64 24, ptr nonnull %3) #8
  call void @appendPQExpBufferStr(ptr noundef nonnull %7, ptr noundef nonnull @.str.111) #8
  %17 = load ptr, ptr %7, align 8
  %18 = call ptr @PSQLexec(ptr noundef %17) #8
  call void @termPQExpBuffer(ptr noundef nonnull %7) #8
  %.not = icmp eq ptr %18, null
  br i1 %.not, label %39, label %19

19:                                               ; preds = %16
  %20 = call i32 @PQntuples(ptr noundef nonnull %18) #8
  %21 = icmp eq i32 %20, 0
  br i1 %21, label %22, label %32

22:                                               ; preds = %19
  %23 = load i8, ptr getelementptr inbounds nuw (i8, ptr @pset, i64 402), align 2, !range !9, !noundef !10
  %24 = trunc nuw i8 %23 to i1
  br i1 %24, label %32, label %25

25:                                               ; preds = %22
  %26 = icmp ne ptr %0, null
  %27 = icmp ne ptr %1, null
  %or.cond = and i1 %26, %27
  br i1 %or.cond, label %28, label %29

28:                                               ; preds = %25
  call void (i32, i32, ptr, ...) @pg_log_generic(i32 noundef 4, i32 noundef 0, ptr noundef nonnull @.str.230, ptr noundef nonnull %0, ptr noundef nonnull %1) #8
  br label %37

29:                                               ; preds = %25
  br i1 %26, label %30, label %31

30:                                               ; preds = %29
  call void (i32, i32, ptr, ...) @pg_log_generic(i32 noundef 4, i32 noundef 0, ptr noundef nonnull @.str.231, ptr noundef nonnull %0) #8
  br label %37

31:                                               ; preds = %29
  call void (i32, i32, ptr, ...) @pg_log_generic(i32 noundef 4, i32 noundef 0, ptr noundef nonnull @.str.232) #8
  br label %37

32:                                               ; preds = %22, %19
  %33 = getelementptr inbounds nuw i8, ptr %8, i64 128
  store ptr @.str.233, ptr %33, align 8
  %34 = getelementptr inbounds nuw i8, ptr %8, i64 144
  store i8 1, ptr %34, align 8
  %35 = load ptr, ptr getelementptr inbounds nuw (i8, ptr @pset, i64 16), align 8
  %36 = load ptr, ptr getelementptr inbounds nuw (i8, ptr @pset, i64 376), align 8
  call void @printQuery(ptr noundef nonnull %18, ptr noundef nonnull %8, ptr noundef %35, i1 noundef zeroext false, ptr noundef %36) #8
  br label %37

37:                                               ; preds = %28, %31, %30, %32
  call void @PQclear(ptr noundef nonnull %18) #8
  br label %39

38:                                               ; preds = %validateSQLNamePattern.exit19, %validateSQLNamePattern.exit
  call void @termPQExpBuffer(ptr noundef nonnull %7) #8
  br label %39

39:                                               ; preds = %16, %38, %37
  %.0 = phi i1 [ true, %37 ], [ false, %38 ], [ false, %16 ]
  call void @llvm.lifetime.end.p0(i64 168, ptr nonnull %8) #8
  call void @llvm.lifetime.end.p0(i64 24, ptr nonnull %7) #8
  ret i1 %.0
}